; Function Attrs: mustprogress nofree norecurse nosync nounwind willreturn memory(none) uwtable
define internal noundef double @trc_log(double noundef %0) #0 {
  %2 = fcmp nsz olt double %0, 1.000000e-02
  br i1 %2, label %7, label %3

3:                                                ; preds = %1
  %4 = tail call nsz double @llvm.log10.f64(double %0)
  %5 = fmul nsz double %4, 5.000000e-01
  %6 = fadd nsz double %5, 1.000000e+00
  br label %7

7:                                                ; preds = %1, %3
  %8 = phi nsz double [ %6, %3 ], [ 0.000000e+00, %1 ]
  ret double %8
}